target datalayout = "e-m:e-p270:32:32-p271:32:32-p272:64:64-i64:64-i128:128-f80:128-n8:16:32:64-S128"
target triple = "x86_64-pc-linux-gnu"

%class.aiVector2t = type { double, double }
%"struct.std::pair.3" = type { %class.aiVector2t, %class.aiVector2t }

; Function Attrs: mustprogress nounwind uwtable
define linkonce_odr noundef float @_ZNSt14numeric_limitsIfE7epsilonEv() #1 comdat align 2 {
  ret float 0x3E80000000000000
}

; Function Attrs: inlinehint mustprogress nounwind uwtable
define linkonce_odr hidden noundef float @_ZN6Assimp4Math10getEpsilonIfEET_v() #5 comdat {
  %1 = call noundef float @_ZNSt14numeric_limitsIfE7epsilonEv() #20
  ret float %1
}

; Function Attrs: mustprogress uwtable
define hidden noundef zeroext i1 @_ZN6Assimp3IFC21BoundingBoxesAdjacentERKSt4pairI10aiVector2tIdES3_ES6_(ptr noundef nonnull align 8 dereferenceable(32) %0, ptr noundef nonnull align 8 dereferenceable(32) %1) #3 {
  %3 = alloca ptr, align 8
  %4 = alloca ptr, align 8
  %5 = alloca double, align 8
  store ptr %0, ptr %3, align 8
  store ptr %1, ptr %4, align 8
  call void @llvm.lifetime.start.p0(i64 8, ptr %5) #20
  %6 = call noundef float @_ZN6Assimp4Math10getEpsilonIfEET_v()
  %7 = fpext float %6 to double
  store double %7, ptr %5, align 8
  %8 = load ptr, ptr %3, align 8
  %9 = getelementptr inbounds nuw %"struct.std::pair.3", ptr %8, i32 0, i32 1
  %10 = getelementptr inbounds nuw %class.aiVector2t, ptr %9, i32 0, i32 0
  %11 = load double, ptr %10, align 8
  %12 = load ptr, ptr %4, align 8
  %13 = getelementptr inbounds nuw %"struct.std::pair.3", ptr %12, i32 0, i32 0
  %14 = getelementptr inbounds nuw %class.aiVector2t, ptr %13, i32 0, i32 0
  %15 = load double, ptr %14, align 8
  %16 = fsub double %11, %15
  %17 = call double @llvm.fabs.f64(double %16)
  %18 = load double, ptr %5, align 8
  %19 = fcmp olt double %17, %18
  br i1 %19, label %20, label %40

20:                                               ; preds = %2
  %21 = load ptr, ptr %3, align 8
  %22 = getelementptr inbounds nuw %"struct.std::pair.3", ptr %21, i32 0, i32 0
  %23 = getelementptr inbounds nuw %class.aiVector2t, ptr %22, i32 0, i32 1
  %24 = load double, ptr %23, align 8
  %25 = load ptr, ptr %4, align 8
  %26 = getelementptr inbounds nuw %"struct.std::pair.3", ptr %25, i32 0, i32 1
  %27 = getelementptr inbounds nuw %class.aiVector2t, ptr %26, i32 0, i32 1
  %28 = load double, ptr %27, align 8
  %29 = fcmp ole double %24, %28
  br i1 %29, label %30, label %40

30:                                               ; preds = %20
  %31 = load ptr, ptr %3, align 8
  %32 = getelementptr inbounds nuw %"struct.std::pair.3", ptr %31, i32 0, i32 1
  %33 = getelementptr inbounds nuw %class.aiVector2t, ptr %32, i32 0, i32 1
  %34 = load double, ptr %33, align 8
  %35 = load ptr, ptr %4, align 8
  %36 = getelementptr inbounds nuw %"struct.std::pair.3", ptr %35, i32 0, i32 0
  %37 = getelementptr inbounds nuw %class.aiVector2t, ptr %36, i32 0, i32 1
  %38 = load double, ptr %37, align 8
  %39 = fcmp oge double %34, %38
  br i1 %39, label %141, label %40

40:                                               ; preds = %30, %20, %2
  %41 = load ptr, ptr %3, align 8
  %42 = getelementptr inbounds nuw %"struct.std::pair.3", ptr %41, i32 0, i32 0
  %43 = getelementptr inbounds nuw %class.aiVector2t, ptr %42, i32 0, i32 0
  %44 = load double, ptr %43, align 8
  %45 = load ptr, ptr %4, align 8
  %46 = getelementptr inbounds nuw %"struct.std::pair.3", ptr %45, i32 0, i32 1
  %47 = getelementptr inbounds nuw %class.aiVector2t, ptr %46, i32 0, i32 0
  %48 = load double, ptr %47, align 8
  %49 = fsub double %44, %48
  %50 = call double @llvm.fabs.f64(double %49)
  %51 = load double, ptr %5, align 8
  %52 = fcmp olt double %50, %51
  br i1 %52, label %53, label %73

53:                                               ; preds = %40
  %54 = load ptr, ptr %4, align 8
  %55 = getelementptr inbounds nuw %"struct.std::pair.3", ptr %54, i32 0, i32 0
  %56 = getelementptr inbounds nuw %class.aiVector2t, ptr %55, i32 0, i32 1
  %57 = load double, ptr %56, align 8
  %58 = load ptr, ptr %3, align 8
  %59 = getelementptr inbounds nuw %"struct.std::pair.3", ptr %58, i32 0, i32 1
  %60 = getelementptr inbounds nuw %class.aiVector2t, ptr %59, i32 0, i32 1
  %61 = load double, ptr %60, align 8
  %62 = fcmp ole double %57, %61
  br i1 %62, label %63, label %73

63:                                               ; preds = %53
  %64 = load ptr, ptr %4, align 8
  %65 = getelementptr inbounds nuw %"struct.std::pair.3", ptr %64, i32 0, i32 1
  %66 = getelementptr inbounds nuw %class.aiVector2t, ptr %65, i32 0, i32 1
  %67 = load double, ptr %66, align 8
  %68 = load ptr, ptr %3, align 8
  %69 = getelementptr inbounds nuw %"struct.std::pair.3", ptr %68, i32 0, i32 0
  %70 = getelementptr inbounds nuw %class.aiVector2t, ptr %69, i32 0, i32 1
  %71 = load double, ptr %70, align 8
  %72 = fcmp oge double %67, %71
  br i1 %72, label %141, label %73

73:                                               ; preds = %63, %53, %40
  %74 = load ptr, ptr %3, align 8
  %75 = getelementptr inbounds nuw %"struct.std::pair.3", ptr %74, i32 0, i32 1
  %76 = getelementptr inbounds nuw %class.aiVector2t, ptr %75, i32 0, i32 1
  %77 = load double, ptr %76, align 8
  %78 = load ptr, ptr %4, align 8
  %79 = getelementptr inbounds nuw %"struct.std::pair.3", ptr %78, i32 0, i32 0
  %80 = getelementptr inbounds nuw %class.aiVector2t, ptr %79, i32 0, i32 1
  %81 = load double, ptr %80, align 8
  %82 = fsub double %77, %81
  %83 = call double @llvm.fabs.f64(double %82)
  %84 = load double, ptr %5, align 8
  %85 = fcmp olt double %83, %84
  br i1 %85, label %86, label %106

86:                                               ; preds = %73
  %87 = load ptr, ptr %3, align 8
  %88 = getelementptr inbounds nuw %"struct.std::pair.3", ptr %87, i32 0, i32 0
  %89 = getelementptr inbounds nuw %class.aiVector2t, ptr %88, i32 0, i32 0
  %90 = load double, ptr %89, align 8
  %91 = load ptr, ptr %4, align 8
  %92 = getelementptr inbounds nuw %"struct.std::pair.3", ptr %91, i32 0, i32 1
  %93 = getelementptr inbounds nuw %class.aiVector2t, ptr %92, i32 0, i32 0
  %94 = load double, ptr %93, align 8
  %95 = fcmp ole double %90, %94
  br i1 %95, label %96, label %106

96:                                               ; preds = %86
  %97 = load ptr, ptr %3, align 8
  %98 = getelementptr inbounds nuw %"struct.std::pair.3", ptr %97, i32 0, i32 1
  %99 = getelementptr inbounds nuw %class.aiVector2t, ptr %98, i32 0, i32 0
  %100 = load double, ptr %99, align 8
  %101 = load ptr, ptr %4, align 8
  %102 = getelementptr inbounds nuw %"struct.std::pair.3", ptr %101, i32 0, i32 0
  %103 = getelementptr inbounds nuw %class.aiVector2t, ptr %102, i32 0, i32 0
  %104 = load double, ptr %103, align 8
  %105 = fcmp oge double %100, %104
  br i1 %105, label %141, label %106

106:                                              ; preds = %96, %86, %73
  %107 = load ptr, ptr %3, align 8
  %108 = getelementptr inbounds nuw %"struct.std::pair.3", ptr %107, i32 0, i32 0
  %109 = getelementptr inbounds nuw %class.aiVector2t, ptr %108, i32 0, i32 1
  %110 = load double, ptr %109, align 8
  %111 = load ptr, ptr %4, align 8
  %112 = getelementptr inbounds nuw %"struct.std::pair.3", ptr %111, i32 0, i32 1
  %113 = getelementptr inbounds nuw %class.aiVector2t, ptr %112, i32 0, i32 1
  %114 = load double, ptr %113, align 8
  %115 = fsub double %110, %114
  %116 = call double @llvm.fabs.f64(double %115)
  %117 = load double, ptr %5, align 8
  %118 = fcmp olt double %116, %117
  br i1 %118, label %119, label %139

119:                                              ; preds = %106
  %120 = load ptr, ptr %4, align 8
  %121 = getelementptr inbounds nuw %"struct.std::pair.3", ptr %120, i32 0, i32 0
  %122 = getelementptr inbounds nuw %class.aiVector2t, ptr %121, i32 0, i32 0
  %123 = load double, ptr %122, align 8
  %124 = load ptr, ptr %3, align 8
  %125 = getelementptr inbounds nuw %"struct.std::pair.3", ptr %124, i32 0, i32 1
  %126 = getelementptr inbounds nuw %class.aiVector2t, ptr %125, i32 0, i32 0
  %127 = load double, ptr %126, align 8
  %128 = fcmp ole double %123, %127
  br i1 %128, label %129, label %139

129:                                              ; preds = %119
  %130 = load ptr, ptr %4, align 8
  %131 = getelementptr inbounds nuw %"struct.std::pair.3", ptr %130, i32 0, i32 1
  %132 = getelementptr inbounds nuw %class.aiVector2t, ptr %131, i32 0, i32 0
  %133 = load double, ptr %132, align 8
  %134 = load ptr, ptr %3, align 8
  %135 = getelementptr inbounds nuw %"struct.std::pair.3", ptr %134, i32 0, i32 0
  %136 = getelementptr inbounds nuw %class.aiVector2t, ptr %135, i32 0, i32 0
  %137 = load double, ptr %136, align 8
  %138 = fcmp oge double %133, %137
  br label %139

139:                                              ; preds = %129, %119, %106
  %140 = phi i1 [ false, %119 ], [ false, %106 ], [ %138, %129 ]
  br label %141

141:                                              ; preds = %139, %96, %63, %30
  %142 = phi i1 [ true, %96 ], [ true, %63 ], [ true, %30 ], [ %140, %139 ]
  call void @llvm.lifetime.end.p0(i64 8, ptr %5) #20
  ret i1 %142
}