; Function Attrs: mustprogress nofree norecurse nosync nounwind willreturn memory(argmem: read) uwtable
define hidden noundef zeroext i1 @_ZN6Assimp3IFC21BoundingBoxesAdjacentERKSt4pairI10aiVector2tIdES3_ES6_(ptr noundef nonnull readonly align 8 captures(none) dereferenceable(32) %0, ptr noundef nonnull readonly align 8 captures(none) dereferenceable(32) %1) local_unnamed_addr #10 {
  %3 = getelementptr inbounds nuw i8, ptr %0, i64 16
  %4 = load double, ptr %3, align 8
  %5 = load double, ptr %1, align 8
  %6 = fsub double %4, %5
  %7 = tail call double @llvm.fabs.f64(double %6)
  %8 = fcmp olt double %7, 0x3E80000000000000
  br i1 %8, label %9, label %21

9:                                                ; preds = %2
  %10 = getelementptr inbounds nuw i8, ptr %0, i64 8
  %11 = load double, ptr %10, align 8
  %12 = getelementptr inbounds nuw i8, ptr %1, i64 24
  %13 = load double, ptr %12, align 8
  %14 = fcmp ugt double %11, %13
  br i1 %14, label %21, label %15

15:                                               ; preds = %9
  %16 = getelementptr inbounds nuw i8, ptr %0, i64 24
  %17 = load double, ptr %16, align 8
  %18 = getelementptr inbounds nuw i8, ptr %1, i64 8
  %19 = load double, ptr %18, align 8
  %20 = fcmp ult double %17, %19
  br i1 %20, label %21, label %58

21:                                               ; preds = %15, %9, %2
  %22 = load double, ptr %0, align 8
  %23 = getelementptr inbounds nuw i8, ptr %1, i64 16
  %24 = load double, ptr %23, align 8
  %25 = fsub double %22, %24
  %26 = tail call double @llvm.fabs.f64(double %25)
  %27 = fcmp olt double %26, 0x3E80000000000000
  br i1 %27, label %28, label %._crit_edge

._crit_edge:                                      ; preds = %21
  %.phi.trans.insert = getelementptr inbounds nuw i8, ptr %0, i64 24
  %.pre = load double, ptr %.phi.trans.insert, align 8
  %.phi.trans.insert31 = getelementptr inbounds nuw i8, ptr %1, i64 8
  %.pre32 = load double, ptr %.phi.trans.insert31, align 8
  br label %40

28:                                               ; preds = %21
  %29 = getelementptr inbounds nuw i8, ptr %1, i64 8
  %30 = load double, ptr %29, align 8
  %31 = getelementptr inbounds nuw i8, ptr %0, i64 24
  %32 = load double, ptr %31, align 8
  %33 = fcmp ugt double %30, %32
  br i1 %33, label %40, label %34

34:                                               ; preds = %28
  %35 = getelementptr inbounds nuw i8, ptr %1, i64 24
  %36 = load double, ptr %35, align 8
  %37 = getelementptr inbounds nuw i8, ptr %0, i64 8
  %38 = load double, ptr %37, align 8
  %39 = fcmp ult double %36, %38
  br i1 %39, label %40, label %58

40:                                               ; preds = %._crit_edge, %34, %28
  %41 = phi double [ %.pre32, %._crit_edge ], [ %30, %34 ], [ %30, %28 ]
  %42 = phi double [ %.pre, %._crit_edge ], [ %32, %34 ], [ %32, %28 ]
  %43 = fsub double %42, %41
  %44 = tail call double @llvm.fabs.f64(double %43)
  %45 = fcmp uge double %44, 0x3E80000000000000
  %46 = fcmp ugt double %22, %24
  %or.cond = select i1 %45, i1 true, i1 %46
  %47 = fcmp ult double %4, %5
  %or.cond28 = select i1 %or.cond, i1 true, i1 %47
  br i1 %or.cond28, label %48, label %58

48:                                               ; preds = %40
  %49 = getelementptr inbounds nuw i8, ptr %0, i64 8
  %50 = load double, ptr %49, align 8
  %51 = getelementptr inbounds nuw i8, ptr %1, i64 24
  %52 = load double, ptr %51, align 8
  %53 = fsub double %50, %52
  %54 = tail call double @llvm.fabs.f64(double %53)
  %55 = fcmp olt double %54, 0x3E80000000000000
  %56 = fcmp ole double %5, %4
  %or.cond29.not = select i1 %55, i1 %56, i1 false
  %57 = fcmp oge double %24, %22
  %spec.select = select i1 %or.cond29.not, i1 %57, i1 false
  br label %58

58:                                               ; preds = %48, %40, %34, %15
  %59 = phi i1 [ true, %34 ], [ true, %15 ], [ true, %40 ], [ %spec.select, %48 ]
  ret i1 %59
}